; Function Attrs: nounwind uwtable
define range(i32 0, 2) i32 @TS_TST_INFO_set_policy_id(ptr noundef captures(none) %0, ptr noundef %1) local_unnamed_addr #0 {
  %3 = getelementptr inbounds nuw i8, ptr %0, i64 8
  %4 = load ptr, ptr %3, align 8, !tbaa !22
  %5 = icmp eq ptr %4, %1
  br i1 %5, label %12, label %6

6:                                                ; preds = %2
  %7 = tail call ptr @OBJ_dup(ptr noundef %1) #4
  %8 = icmp eq ptr %7, null
  br i1 %8, label %9, label %10

9:                                                ; preds = %6
  tail call void @ERR_new() #4
  tail call void @ERR_set_debug(ptr noundef nonnull @.str, i32 noundef 76, ptr noundef nonnull @__func__.TS_TST_INFO_set_policy_id) #4
  tail call void (i32, i32, ptr, ...) @ERR_set_error(i32 noundef 47, i32 noundef 524296, ptr noundef null) #4
  br label %12

10:                                               ; preds = %6
  %11 = load ptr, ptr %3, align 8, !tbaa !22
  tail call void @ASN1_OBJECT_free(ptr noundef %11) #4
  store ptr %7, ptr %3, align 8, !tbaa !22
  br label %12

12:                                               ; preds = %2, %10, %9
  %.0 = phi i32 [ 0, %9 ], [ 1, %10 ], [ 1, %2 ]
  ret i32 %.0
}